; Function Attrs: mustprogress uwtable
define hidden void @_ZN4cvc58internal6theory5arith6linear17InferBoundsResult8setBoundERKNS0_13DeltaRationalENS0_12NodeTemplateILb1EEE(ptr noundef nonnull align 8 dereferenceable(96) initializes((0, 1)) %this, ptr noundef nonnull align 8 dereferenceable(64) %dr, ptr noundef readonly captures(none) %exp) local_unnamed_addr #9 align 2 {
entry:
  store i8 1, ptr %this, align 8
  %d_value = getelementptr inbounds nuw i8, ptr %this, i64 8
  %cmp.i.i = icmp eq ptr %d_value, %dr
  br i1 %cmp.i.i, label %_ZN4cvc58internal13DeltaRationalaSERKS1_.exit, label %if.end.i3.i

if.end.i3.i:                                      ; preds = %entry
  tail call void @__gmpq_set(ptr noundef nonnull align 8 dereferenceable(64) %d_value, ptr noundef nonnull align 8 dereferenceable(64) %dr)
  %k.i = getelementptr inbounds nuw i8, ptr %dr, i64 32
  %k3.i = getelementptr inbounds nuw i8, ptr %this, i64 40
  tail call void @__gmpq_set(ptr noundef nonnull align 8 dereferenceable(32) %k3.i, ptr noundef nonnull align 8 dereferenceable(32) %k.i)
  br label %_ZN4cvc58internal13DeltaRationalaSERKS1_.exit

_ZN4cvc58internal13DeltaRationalaSERKS1_.exit:    ; preds = %entry, %if.end.i3.i
  %d_explanation = getelementptr inbounds nuw i8, ptr %this, i64 88
  %0 = load ptr, ptr %d_explanation, align 8
  %1 = load ptr, ptr %exp, align 8
  %cmp.not.i = icmp eq ptr %0, %1
  br i1 %cmp.not.i, label %_ZN4cvc58internal12NodeTemplateILb1EEaSERKS2_.exit, label %if.then.i

if.then.i:                                        ; preds = %_ZN4cvc58internal13DeltaRationalaSERKS1_.exit
  %bf.load.i.i = load i64, ptr %0, align 8
  %2 = and i64 %bf.load.i.i, 1152920405095219200
  %cmp.not.i.i = icmp eq i64 %2, 1152920405095219200
  br i1 %cmp.not.i.i, label %_ZN4cvc58internal4expr9NodeValue3decEv.exit.i, label %if.then.i.i

if.then.i.i:                                      ; preds = %if.then.i
  %bf.value.i.i = add i64 %bf.load.i.i, 1152920405095219200
  %bf.shl.i.i = and i64 %bf.value.i.i, 1152920405095219200
  %bf.clear7.i.i = and i64 %bf.load.i.i, -1152920405095219201
  %bf.set.i.i = or disjoint i64 %bf.shl.i.i, %bf.clear7.i.i
  store i64 %bf.set.i.i, ptr %0, align 8
  %cmp12.i.i = icmp eq i64 %bf.shl.i.i, 0
  br i1 %cmp12.i.i, label %if.then13.i.i, label %_ZN4cvc58internal4expr9NodeValue3decEv.exit.i

if.then13.i.i:                                    ; preds = %if.then.i.i
  tail call void @_ZN4cvc58internal4expr9NodeValue15markForDeletionEv(ptr noundef nonnull align 8 dereferenceable(16) %0)
  br label %_ZN4cvc58internal4expr9NodeValue3decEv.exit.i

_ZN4cvc58internal4expr9NodeValue3decEv.exit.i:    ; preds = %if.then13.i.i, %if.then.i.i, %if.then.i
  %3 = load ptr, ptr %exp, align 8
  store ptr %3, ptr %d_explanation, align 8
  %bf.load.i2.i = load i64, ptr %3, align 8
  %bf.lshr.i.i = lshr i64 %bf.load.i2.i, 40
  %4 = trunc nuw nsw i64 %bf.lshr.i.i to i32
  %bf.cast.i.i = and i32 %4, 1048575
  %cmp.i.i1 = icmp samesign ult i32 %bf.cast.i.i, 1048574
  br i1 %cmp.i.i1, label %if.then.i5.i, label %if.else.i.i

if.then.i5.i:                                     ; preds = %_ZN4cvc58internal4expr9NodeValue3decEv.exit.i
  %bf.value.i6.i = add i64 %bf.load.i2.i, 1099511627776
  %bf.shl.i7.i = and i64 %bf.value.i6.i, 1152920405095219200
  %bf.clear7.i8.i = and i64 %bf.load.i2.i, -1152920405095219201
  %bf.set.i9.i = or disjoint i64 %bf.shl.i7.i, %bf.clear7.i8.i
  store i64 %bf.set.i9.i, ptr %3, align 8
  br label %_ZN4cvc58internal12NodeTemplateILb1EEaSERKS2_.exit

if.else.i.i:                                      ; preds = %_ZN4cvc58internal4expr9NodeValue3decEv.exit.i
  %cmp12.i3.i = icmp eq i32 %bf.cast.i.i, 1048574
  br i1 %cmp12.i3.i, label %if.then13.i4.i, label %_ZN4cvc58internal12NodeTemplateILb1EEaSERKS2_.exit

if.then13.i4.i:                                   ; preds = %if.else.i.i
  %bf.set23.i.i = or i64 %bf.load.i2.i, 1152920405095219200
  store i64 %bf.set23.i.i, ptr %3, align 8
  tail call void @_ZN4cvc58internal4expr9NodeValue20markRefCountMaxedOutEv(ptr noundef nonnull align 8 dereferenceable(16) %3)
  br label %_ZN4cvc58internal12NodeTemplateILb1EEaSERKS2_.exit

_ZN4cvc58internal12NodeTemplateILb1EEaSERKS2_.exit: ; preds = %_ZN4cvc58internal13DeltaRationalaSERKS1_.exit, %if.then.i5.i, %if.else.i.i, %if.then13.i4.i
  ret void
}